target datalayout = "e-m:e-p270:32:32-p271:32:32-p272:64:64-i64:64-i128:128-f80:128-n8:16:32:64-S128"
target triple = "x86_64-pc-linux-gnu"

%struct.FT_FaceRec_ = type { i64, i64, i64, i64, i64, ptr, ptr, i32, ptr, i32, ptr, %struct.FT_Generic_, %struct.FT_BBox_, i16, i16, i16, i16, i16, i16, i16, i16, ptr, ptr, ptr, ptr, ptr, ptr, %struct.FT_ListRec_, %struct.FT_Generic_, ptr, ptr }
%struct.FT_BBox_ = type { i64, i64, i64, i64 }
%struct.FT_ListRec_ = type { ptr, ptr }
%struct.FT_Generic_ = type { ptr, ptr }
%struct.AF_StyleMetricsRec_ = type { ptr, %struct.AF_ScalerRec_, i8, ptr }
%struct.AF_ScalerRec_ = type { ptr, i64, i64, i64, i64, i32, i32 }
%struct.AF_WidthRec_ = type { i64, i64, i64 }
%struct.AF_GlyphHintsRec_ = type { ptr, i64, i64, i64, i64, i32, i32, ptr, i32, i32, ptr, [2 x %struct.AF_AxisHintsRec_], i32, i32, ptr, %struct.anon.0 }
%struct.AF_AxisHintsRec_ = type { i32, i32, ptr, i32, i32, ptr, i32, %struct.anon }
%struct.anon = type { [18 x %struct.AF_SegmentRec_], [12 x %struct.AF_EdgeRec_] }
%struct.AF_SegmentRec_ = type { i8, i8, i16, i16, i16, i16, i16, ptr, ptr, ptr, ptr, i64, i64, ptr, ptr }
%struct.AF_EdgeRec_ = type { i16, i64, i64, i8, i8, i64, ptr, ptr, ptr, i32, ptr, ptr }
%struct.anon.0 = type { [8 x ptr], [96 x %struct.AF_PointRec_] }
%struct.AF_PointRec_ = type { i16, i8, i8, i64, i64, i16, i16, i64, i64, i64, i64, ptr, ptr }
%struct.AF_LatinMetricsRec_ = type { %struct.AF_StyleMetricsRec_, i32, [2 x %struct.AF_LatinAxisRec_] }
%struct.AF_LatinAxisRec_ = type { i64, i64, i32, [16 x %struct.AF_WidthRec_], i64, i64, i8, i32, [8 x %struct.AF_LatinBlueRec_], i64, i64 }
%struct.AF_LatinBlueRec_ = type { %struct.AF_WidthRec_, %struct.AF_WidthRec_, i64, i64, i32 }

; Function Attrs: nounwind uwtable
define internal void @af_glyph_hints_rescale(ptr noundef %0, ptr noundef %1) #0 {
  %3 = alloca ptr, align 8
  %4 = alloca ptr, align 8
  store ptr %0, ptr %3, align 8, !tbaa !48
  store ptr %1, ptr %4, align 8, !tbaa !3
  %5 = load ptr, ptr %4, align 8, !tbaa !3
  %6 = load ptr, ptr %3, align 8, !tbaa !48
  %7 = getelementptr inbounds nuw %struct.AF_GlyphHintsRec_, ptr %6, i32 0, i32 14
  store ptr %5, ptr %7, align 8, !tbaa !236
  %8 = load ptr, ptr %4, align 8, !tbaa !3
  %9 = getelementptr inbounds nuw %struct.AF_StyleMetricsRec_, ptr %8, i32 0, i32 1
  %10 = getelementptr inbounds nuw %struct.AF_ScalerRec_, ptr %9, i32 0, i32 6
  %11 = load i32, ptr %10, align 4, !tbaa !237
  %12 = load ptr, ptr %3, align 8, !tbaa !48
  %13 = getelementptr inbounds nuw %struct.AF_GlyphHintsRec_, ptr %12, i32 0, i32 12
  store i32 %11, ptr %13, align 8, !tbaa !61
  ret void
}

; Function Attrs: nounwind uwtable
define internal i32 @af_latin_hints_init(ptr noundef %0, ptr noundef %1) #0 {
  %3 = alloca ptr, align 8
  %4 = alloca ptr, align 8
  %5 = alloca ptr, align 8
  %6 = alloca i32, align 4
  %7 = alloca i32, align 4
  %8 = alloca i32, align 4
  %9 = alloca ptr, align 8
  store ptr %0, ptr %3, align 8, !tbaa !48
  store ptr %1, ptr %4, align 8, !tbaa !3
  call void @llvm.lifetime.start.p0(i64 8, ptr %5) #10
  %10 = load ptr, ptr %4, align 8, !tbaa !3
  store ptr %10, ptr %5, align 8, !tbaa !71
  call void @llvm.lifetime.start.p0(i64 4, ptr %6) #10
  call void @llvm.lifetime.start.p0(i64 4, ptr %7) #10
  call void @llvm.lifetime.start.p0(i64 4, ptr %8) #10
  call void @llvm.lifetime.start.p0(i64 8, ptr %9) #10
  %11 = load ptr, ptr %5, align 8, !tbaa !71
  %12 = getelementptr inbounds nuw %struct.AF_LatinMetricsRec_, ptr %11, i32 0, i32 0
  %13 = getelementptr inbounds nuw %struct.AF_StyleMetricsRec_, ptr %12, i32 0, i32 1
  %14 = getelementptr inbounds nuw %struct.AF_ScalerRec_, ptr %13, i32 0, i32 0
  %15 = load ptr, ptr %14, align 8, !tbaa !78
  store ptr %15, ptr %9, align 8, !tbaa !8
  %16 = load ptr, ptr %3, align 8, !tbaa !48
  %17 = load ptr, ptr %5, align 8, !tbaa !71
  call void @af_glyph_hints_rescale(ptr noundef %16, ptr noundef %17)
  %18 = load ptr, ptr %5, align 8, !tbaa !71
  %19 = getelementptr inbounds nuw %struct.AF_LatinMetricsRec_, ptr %18, i32 0, i32 2
  %20 = getelementptr inbounds [2 x %struct.AF_LatinAxisRec_], ptr %19, i64 0, i64 0
  %21 = getelementptr inbounds nuw %struct.AF_LatinAxisRec_, ptr %20, i32 0, i32 0
  %22 = load i64, ptr %21, align 8, !tbaa !83
  %23 = load ptr, ptr %3, align 8, !tbaa !48
  %24 = getelementptr inbounds nuw %struct.AF_GlyphHintsRec_, ptr %23, i32 0, i32 1
  store i64 %22, ptr %24, align 8, !tbaa !51
  %25 = load ptr, ptr %5, align 8, !tbaa !71
  %26 = getelementptr inbounds nuw %struct.AF_LatinMetricsRec_, ptr %25, i32 0, i32 2
  %27 = getelementptr inbounds [2 x %struct.AF_LatinAxisRec_], ptr %26, i64 0, i64 0
  %28 = getelementptr inbounds nuw %struct.AF_LatinAxisRec_, ptr %27, i32 0, i32 1
  %29 = load i64, ptr %28, align 8, !tbaa !84
  %30 = load ptr, ptr %3, align 8, !tbaa !48
  %31 = getelementptr inbounds nuw %struct.AF_GlyphHintsRec_, ptr %30, i32 0, i32 2
  store i64 %29, ptr %31, align 8, !tbaa !57
  %32 = load ptr, ptr %5, align 8, !tbaa !71
  %33 = getelementptr inbounds nuw %struct.AF_LatinMetricsRec_, ptr %32, i32 0, i32 2
  %34 = getelementptr inbounds [2 x %struct.AF_LatinAxisRec_], ptr %33, i64 0, i64 1
  %35 = getelementptr inbounds nuw %struct.AF_LatinAxisRec_, ptr %34, i32 0, i32 0
  %36 = load i64, ptr %35, align 8, !tbaa !83
  %37 = load ptr, ptr %3, align 8, !tbaa !48
  %38 = getelementptr inbounds nuw %struct.AF_GlyphHintsRec_, ptr %37, i32 0, i32 3
  store i64 %36, ptr %38, align 8, !tbaa !58
  %39 = load ptr, ptr %5, align 8, !tbaa !71
  %40 = getelementptr inbounds nuw %struct.AF_LatinMetricsRec_, ptr %39, i32 0, i32 2
  %41 = getelementptr inbounds [2 x %struct.AF_LatinAxisRec_], ptr %40, i64 0, i64 1
  %42 = getelementptr inbounds nuw %struct.AF_LatinAxisRec_, ptr %41, i32 0, i32 1
  %43 = load i64, ptr %42, align 8, !tbaa !84
  %44 = load ptr, ptr %3, align 8, !tbaa !48
  %45 = getelementptr inbounds nuw %struct.AF_GlyphHintsRec_, ptr %44, i32 0, i32 4
  store i64 %43, ptr %45, align 8, !tbaa !59
  %46 = load ptr, ptr %5, align 8, !tbaa !71
  %47 = getelementptr inbounds nuw %struct.AF_LatinMetricsRec_, ptr %46, i32 0, i32 0
  %48 = getelementptr inbounds nuw %struct.AF_StyleMetricsRec_, ptr %47, i32 0, i32 1
  %49 = getelementptr inbounds nuw %struct.AF_ScalerRec_, ptr %48, i32 0, i32 5
  %50 = load i32, ptr %49, align 8, !tbaa !76
  store i32 %50, ptr %6, align 4, !tbaa !43
  %51 = load ptr, ptr %3, align 8, !tbaa !48
  %52 = getelementptr inbounds nuw %struct.AF_GlyphHintsRec_, ptr %51, i32 0, i32 12
  %53 = load i32, ptr %52, align 8, !tbaa !61
  store i32 %53, ptr %7, align 4, !tbaa !43
  store i32 0, ptr %8, align 4, !tbaa !43
  %54 = load i32, ptr %6, align 4, !tbaa !43
  %55 = icmp eq i32 %54, 2
  br i1 %55, label %59, label %56

56:                                               ; preds = %2
  %57 = load i32, ptr %6, align 4, !tbaa !43
  %58 = icmp eq i32 %57, 3
  br i1 %58, label %59, label %62

59:                                               ; preds = %56, %2
  %60 = load i32, ptr %8, align 4, !tbaa !43
  %61 = or i32 %60, 1
  store i32 %61, ptr %8, align 4, !tbaa !43
  br label %62

62:                                               ; preds = %59, %56
  %63 = load i32, ptr %6, align 4, !tbaa !43
  %64 = icmp eq i32 %63, 2
  br i1 %64, label %68, label %65

65:                                               ; preds = %62
  %66 = load i32, ptr %6, align 4, !tbaa !43
  %67 = icmp eq i32 %66, 4
  br i1 %67, label %68, label %71

68:                                               ; preds = %65, %62
  %69 = load i32, ptr %8, align 4, !tbaa !43
  %70 = or i32 %69, 2
  store i32 %70, ptr %8, align 4, !tbaa !43
  br label %71

71:                                               ; preds = %68, %65
  %72 = load i32, ptr %6, align 4, !tbaa !43
  %73 = icmp ne i32 %72, 1
  br i1 %73, label %74, label %80

74:                                               ; preds = %71
  %75 = load i32, ptr %6, align 4, !tbaa !43
  %76 = icmp ne i32 %75, 3
  br i1 %76, label %77, label %80

77:                                               ; preds = %74
  %78 = load i32, ptr %8, align 4, !tbaa !43
  %79 = or i32 %78, 4
  store i32 %79, ptr %8, align 4, !tbaa !43
  br label %80

80:                                               ; preds = %77, %74, %71
  %81 = load i32, ptr %6, align 4, !tbaa !43
  %82 = icmp eq i32 %81, 2
  br i1 %82, label %83, label %86

83:                                               ; preds = %80
  %84 = load i32, ptr %8, align 4, !tbaa !43
  %85 = or i32 %84, 8
  store i32 %85, ptr %8, align 4, !tbaa !43
  br label %86

86:                                               ; preds = %83, %80
  %87 = load i32, ptr %6, align 4, !tbaa !43
  %88 = icmp eq i32 %87, 1
  br i1 %88, label %98, label %89

89:                                               ; preds = %86
  %90 = load i32, ptr %6, align 4, !tbaa !43
  %91 = icmp eq i32 %90, 3
  br i1 %91, label %98, label %92

92:                                               ; preds = %89
  %93 = load ptr, ptr %9, align 8, !tbaa !8
  %94 = getelementptr inbounds nuw %struct.FT_FaceRec_, ptr %93, i32 0, i32 3
  %95 = load i64, ptr %94, align 8, !tbaa !85
  %96 = and i64 %95, 1
  %97 = icmp ne i64 %96, 0
  br i1 %97, label %98, label %101

98:                                               ; preds = %92, %89, %86
  %99 = load i32, ptr %7, align 4, !tbaa !43
  %100 = or i32 %99, 1
  store i32 %100, ptr %7, align 4, !tbaa !43
  br label %101

101:                                              ; preds = %98, %92
  %102 = load i32, ptr %7, align 4, !tbaa !43
  %103 = load ptr, ptr %3, align 8, !tbaa !48
  %104 = getelementptr inbounds nuw %struct.AF_GlyphHintsRec_, ptr %103, i32 0, i32 12
  store i32 %102, ptr %104, align 8, !tbaa !61
  %105 = load i32, ptr %8, align 4, !tbaa !43
  %106 = load ptr, ptr %3, align 8, !tbaa !48
  %107 = getelementptr inbounds nuw %struct.AF_GlyphHintsRec_, ptr %106, i32 0, i32 13
  store i32 %105, ptr %107, align 4, !tbaa !62
  call void @llvm.lifetime.end.p0(i64 8, ptr %9) #10
  call void @llvm.lifetime.end.p0(i64 4, ptr %8) #10
  call void @llvm.lifetime.end.p0(i64 4, ptr %7) #10
  call void @llvm.lifetime.end.p0(i64 4, ptr %6) #10
  call void @llvm.lifetime.end.p0(i64 8, ptr %5) #10
  ret i32 0
}