; Function Attrs: mustprogress nofree norecurse nosync nounwind willreturn memory(read, argmem: readwrite, inaccessiblemem: none) uwtable
define internal noundef i32 @af_latin_hints_init(ptr noundef writeonly captures(none) initializes((8, 40), (5144, 5160)) %0, ptr noundef %1) #2 {
  %3 = getelementptr inbounds nuw i8, ptr %1, i64 8
  %4 = load ptr, ptr %3, align 8, !tbaa !195
  %5 = getelementptr inbounds nuw i8, ptr %0, i64 5152
  store ptr %1, ptr %5, align 8, !tbaa !69
  %6 = getelementptr inbounds nuw i8, ptr %1, i64 52
  %7 = load i32, ptr %6, align 4, !tbaa !75
  %8 = getelementptr inbounds nuw i8, ptr %1, i64 80
  %9 = load i64, ptr %8, align 8, !tbaa !198
  %10 = getelementptr inbounds nuw i8, ptr %0, i64 8
  store i64 %9, ptr %10, align 8, !tbaa !77
  %11 = getelementptr inbounds nuw i8, ptr %1, i64 88
  %12 = load i64, ptr %11, align 8, !tbaa !199
  %13 = getelementptr inbounds nuw i8, ptr %0, i64 16
  store i64 %12, ptr %13, align 8, !tbaa !79
  %14 = getelementptr inbounds nuw i8, ptr %1, i64 1104
  %15 = load i64, ptr %14, align 8, !tbaa !198
  %16 = getelementptr inbounds nuw i8, ptr %0, i64 24
  store i64 %15, ptr %16, align 8, !tbaa !80
  %17 = getelementptr inbounds nuw i8, ptr %1, i64 1112
  %18 = load i64, ptr %17, align 8, !tbaa !199
  %19 = getelementptr inbounds nuw i8, ptr %0, i64 32
  store i64 %18, ptr %19, align 8, !tbaa !81
  %20 = getelementptr inbounds nuw i8, ptr %1, i64 48
  %21 = load i32, ptr %20, align 8, !tbaa !194
  %22 = and i32 %21, -3
  %or.cond5.not = icmp eq i32 %22, 1
  br i1 %or.cond5.not, label %27, label %23

23:                                               ; preds = %2
  %24 = getelementptr inbounds nuw i8, ptr %4, i64 24
  %25 = load i64, ptr %24, align 8, !tbaa !200
  %26 = and i64 %25, 1
  %.not = icmp eq i64 %26, 0
  br i1 %.not, label %29, label %27

27:                                               ; preds = %23, %2
  %28 = or i32 %7, 1
  br label %29

29:                                               ; preds = %27, %23
  %.0 = phi i32 [ %28, %27 ], [ %7, %23 ]
  %30 = getelementptr inbounds nuw i8, ptr %0, i64 5144
  %31 = icmp eq i32 %21, 2
  %32 = icmp eq i32 %21, 4
  %or.cond3 = or i1 %31, %32
  %33 = and i32 %21, -2
  %or.cond = icmp eq i32 %33, 2
  %spec.select = zext i1 %or.cond to i32
  %34 = or disjoint i32 %spec.select, 2
  %.1 = select i1 %or.cond3, i32 %34, i32 %spec.select
  %35 = or disjoint i32 %.1, 4
  %.2 = select i1 %or.cond5.not, i32 %.1, i32 %35
  %36 = or disjoint i32 %.2, 8
  %.3 = select i1 %31, i32 %36, i32 %.2
  store i32 %.0, ptr %30, align 8, !tbaa !83
  %37 = getelementptr inbounds nuw i8, ptr %0, i64 5148
  store i32 %.3, ptr %37, align 4, !tbaa !84
  ret i32 0
}